target datalayout = "e-m:e-p270:32:32-p271:32:32-p272:64:64-i64:64-i128:128-f80:128-n8:16:32:64-S128"
target triple = "x86_64-unknown-linux-gnu"

%"class.std::__shared_count" = type { ptr }
%"class.cvc5::Sort" = type { ptr, %"class.std::shared_ptr.92" }
%"class.std::shared_ptr.92" = type { %"class.std::__shared_ptr.93" }
%"class.std::__shared_ptr.93" = type { ptr, %"class.std::__shared_count" }

; Function Attrs: mustprogress uwtable
define noundef zeroext i1 @_ZN4cvc56parser11ParserState14isFunctionLikeENS_4TermE(ptr noundef nonnull align 8 dereferenceable(168) %this, ptr noundef %fun) #4 align 2 personality ptr @__gxx_personality_v0 {
entry:
  %retval = alloca i1, align 1
  %this.addr = alloca ptr, align 8
  %fun.indirect_addr = alloca ptr, align 8
  %type = alloca %"class.cvc5::Sort", align 8
  %exn.slot = alloca ptr, align 8
  %ehselector.slot = alloca i32, align 4
  store ptr %this, ptr %this.addr, align 8
  store ptr %fun, ptr %fun.indirect_addr, align 8
  %call = call noundef zeroext i1 @_ZNK4cvc54Term6isNullEv(ptr noundef nonnull align 8 dereferenceable(24) %fun)
  br i1 %call, label %if.then, label %if.end

if.then:                                          ; preds = %entry
  store i1 false, ptr %retval, align 1
  br label %return

if.end:                                           ; preds = %entry
  call void @_ZNK4cvc54Term7getSortEv(ptr sret(%"class.cvc5::Sort") align 8 %type, ptr noundef nonnull align 8 dereferenceable(24) %fun)
  %call2 = invoke noundef zeroext i1 @_ZNK4cvc54Sort10isFunctionEv(ptr noundef nonnull align 8 dereferenceable(24) %type)
          to label %invoke.cont unwind label %lpad

invoke.cont:                                      ; preds = %if.end
  br i1 %call2, label %lor.end, label %lor.lhs.false

lor.lhs.false:                                    ; preds = %invoke.cont
  %call4 = invoke noundef zeroext i1 @_ZNK4cvc54Sort21isDatatypeConstructorEv(ptr noundef nonnull align 8 dereferenceable(24) %type)
          to label %invoke.cont3 unwind label %lpad

invoke.cont3:                                     ; preds = %lor.lhs.false
  br i1 %call4, label %lor.end, label %lor.lhs.false5

lor.lhs.false5:                                   ; preds = %invoke.cont3
  %call7 = invoke noundef zeroext i1 @_ZNK4cvc54Sort16isDatatypeTesterEv(ptr noundef nonnull align 8 dereferenceable(24) %type)
          to label %invoke.cont6 unwind label %lpad

invoke.cont6:                                     ; preds = %lor.lhs.false5
  br i1 %call7, label %lor.end, label %lor.rhs

lor.rhs:                                          ; preds = %invoke.cont6
  %call9 = invoke noundef zeroext i1 @_ZNK4cvc54Sort18isDatatypeSelectorEv(ptr noundef nonnull align 8 dereferenceable(24) %type)
          to label %invoke.cont8 unwind label %lpad

invoke.cont8:                                     ; preds = %lor.rhs
  br label %lor.end

lor.end:                                          ; preds = %invoke.cont8, %invoke.cont6, %invoke.cont3, %invoke.cont
  %0 = phi i1 [ true, %invoke.cont6 ], [ true, %invoke.cont3 ], [ true, %invoke.cont ], [ %call9, %invoke.cont8 ]
  store i1 %0, ptr %retval, align 1
  call void @_ZN4cvc54SortD1Ev(ptr noundef nonnull align 8 dereferenceable(24) %type) #3
  br label %return

lpad:                                             ; preds = %lor.rhs, %lor.lhs.false5, %lor.lhs.false, %if.end
  %1 = landingpad { ptr, i32 }
          cleanup
  %2 = extractvalue { ptr, i32 } %1, 0
  store ptr %2, ptr %exn.slot, align 8
  %3 = extractvalue { ptr, i32 } %1, 1
  store i32 %3, ptr %ehselector.slot, align 4
  call void @_ZN4cvc54SortD1Ev(ptr noundef nonnull align 8 dereferenceable(24) %type) #3
  br label %eh.resume

return:                                           ; preds = %lor.end, %if.then
  %4 = load i1, ptr %retval, align 1
  ret i1 %4

eh.resume:                                        ; preds = %lpad
  %exn = load ptr, ptr %exn.slot, align 8
  %sel = load i32, ptr %ehselector.slot, align 4
  %lpad.val = insertvalue { ptr, i32 } poison, ptr %exn, 0
  %lpad.val10 = insertvalue { ptr, i32 } %lpad.val, i32 %sel, 1
  resume { ptr, i32 } %lpad.val10
}