; Function Attrs: mustprogress uwtable
define noundef zeroext i1 @_ZN4cvc56parser11ParserState14isFunctionLikeENS_4TermE(ptr nocapture nonnull readnone align 8 %this, ptr noundef nonnull %fun) local_unnamed_addr #3 align 2 personality ptr @__gxx_personality_v0 {
entry:
  %type = alloca %"class.cvc5::Sort", align 8
  %call = tail call noundef zeroext i1 @_ZNK4cvc54Term6isNullEv(ptr noundef nonnull align 8 dereferenceable(24) %fun)
  br i1 %call, label %return, label %if.end

if.end:                                           ; preds = %entry
  call void @_ZNK4cvc54Term7getSortEv(ptr nonnull sret(%"class.cvc5::Sort") align 8 %type, ptr noundef nonnull align 8 dereferenceable(24) %fun)
  %call2 = invoke noundef zeroext i1 @_ZNK4cvc54Sort10isFunctionEv(ptr noundef nonnull align 8 dereferenceable(24) %type)
          to label %invoke.cont unwind label %lpad

invoke.cont:                                      ; preds = %if.end
  br i1 %call2, label %lor.end, label %lor.lhs.false

lor.lhs.false:                                    ; preds = %invoke.cont
  %call4 = invoke noundef zeroext i1 @_ZNK4cvc54Sort21isDatatypeConstructorEv(ptr noundef nonnull align 8 dereferenceable(24) %type)
          to label %invoke.cont3 unwind label %lpad

invoke.cont3:                                     ; preds = %lor.lhs.false
  br i1 %call4, label %lor.end, label %lor.lhs.false5

lor.lhs.false5:                                   ; preds = %invoke.cont3
  %call7 = invoke noundef zeroext i1 @_ZNK4cvc54Sort16isDatatypeTesterEv(ptr noundef nonnull align 8 dereferenceable(24) %type)
          to label %invoke.cont6 unwind label %lpad

invoke.cont6:                                     ; preds = %lor.lhs.false5
  br i1 %call7, label %lor.end, label %lor.rhs

lor.rhs:                                          ; preds = %invoke.cont6
  %call9 = invoke noundef zeroext i1 @_ZNK4cvc54Sort18isDatatypeSelectorEv(ptr noundef nonnull align 8 dereferenceable(24) %type)
          to label %lor.end unwind label %lpad

lor.end:                                          ; preds = %lor.rhs, %invoke.cont6, %invoke.cont3, %invoke.cont
  %0 = phi i1 [ true, %invoke.cont6 ], [ true, %invoke.cont3 ], [ true, %invoke.cont ], [ %call9, %lor.rhs ]
  call void @_ZN4cvc54SortD1Ev(ptr noundef nonnull align 8 dereferenceable(24) %type) #23
  br label %return

lpad:                                             ; preds = %lor.rhs, %lor.lhs.false5, %lor.lhs.false, %if.end
  %1 = landingpad { ptr, i32 }
          cleanup
  call void @_ZN4cvc54SortD1Ev(ptr noundef nonnull align 8 dereferenceable(24) %type) #23
  resume { ptr, i32 } %1

return:                                           ; preds = %entry, %lor.end
  %retval.0 = phi i1 [ %0, %lor.end ], [ false, %entry ]
  ret i1 %retval.0
}